target datalayout = "e-m:e-p270:32:32-p271:32:32-p272:64:64-i64:64-i128:128-f80:128-n8:16:32:64-S128"
target triple = "x86_64-pc-linux-gnu"

%struct.nameData = type { [64 x i8] }
%struct.RelationData = type { %struct.RelFileLocator, ptr, i32, i32, i8, i8, i8, i8, i8, i32, i32, i32, i32, ptr, ptr, i32, %struct.LockInfoData, ptr, ptr, ptr, ptr, ptr, i8, ptr, ptr, ptr, ptr, ptr, ptr, i32, ptr, i8, ptr, ptr, i32, i8, i32, ptr, i8, ptr, ptr, ptr, ptr, ptr, ptr, ptr, i32, ptr, ptr, ptr, ptr, ptr, ptr, ptr, ptr, ptr, ptr, ptr, ptr, ptr, ptr, ptr, ptr, ptr, ptr, ptr, i32, i8, ptr }
%struct.RelFileLocator = type { i32, i32, i32 }
%struct.LockInfoData = type { %struct.LockRelId }
%struct.LockRelId = type { i32, i32 }
%struct.FormData_pg_class = type { i32, %struct.nameData, i32, i32, i32, i32, i32, i32, i32, i32, float, i32, i32, i8, i8, i8, i8, i16, i16, i8, i8, i8, i8, i8, i8, i8, i8, i32, i32, i32 }
%struct.ForEachState = type { ptr, i32 }
%struct.List = type { i32, i32, i32, ptr, [0 x %union.ListCell] }
%union.ListCell = type { ptr }

@.str.1 = private unnamed_addr constant [7 x i8] c"heap.c\00", align 1
@.str.41 = private unnamed_addr constant [50 x i8] c"unsupported ON COMMIT and foreign key combination\00", align 1
@.str.42 = private unnamed_addr constant [77 x i8] c"Table \22%s\22 references \22%s\22, but they do not have the same ON COMMIT setting.\00", align 1
@__func__.heap_truncate_check_FKs = private unnamed_addr constant [24 x i8] c"heap_truncate_check_FKs\00", align 1
@.str.43 = private unnamed_addr constant [63 x i8] c"cannot truncate a table referenced in a foreign key constraint\00", align 1
@.str.44 = private unnamed_addr constant [28 x i8] c"Table \22%s\22 references \22%s\22.\00", align 1
@.str.45 = private unnamed_addr constant [67 x i8] c"Truncate table \22%s\22 at the same time, or use TRUNCATE ... CASCADE.\00", align 1

; Function Attrs: nounwind uwtable
define dso_local void @heap_truncate_check_FKs(ptr noundef %0, i1 noundef zeroext %1) #0 {
  %3 = alloca ptr, align 8
  %4 = alloca i8, align 1
  %5 = alloca ptr, align 8
  %6 = alloca ptr, align 8
  %7 = alloca ptr, align 8
  %8 = alloca %struct.ForEachState, align 8
  %9 = alloca ptr, align 8
  %10 = alloca i32, align 4
  %11 = alloca %struct.ForEachState, align 8
  %12 = alloca i32, align 4
  %13 = alloca ptr, align 8
  %14 = alloca %union.ListCell, align 8
  %15 = alloca %struct.ForEachState, align 8
  %16 = alloca i32, align 4
  %17 = alloca ptr, align 8
  %18 = alloca ptr, align 8
  store ptr %0, ptr %3, align 8
  %19 = zext i1 %1 to i8
  store i8 %19, ptr %4, align 1
  call void @llvm.lifetime.start.p0(i64 8, ptr %5) #10
  store ptr null, ptr %5, align 8
  call void @llvm.lifetime.start.p0(i64 8, ptr %6) #10
  call void @llvm.lifetime.start.p0(i64 8, ptr %7) #10
  call void @llvm.lifetime.start.p0(i64 16, ptr %8) #10
  %20 = getelementptr inbounds nuw %struct.ForEachState, ptr %8, i32 0, i32 0
  %21 = load ptr, ptr %3, align 8
  store ptr %21, ptr %20, align 8
  %22 = getelementptr inbounds nuw %struct.ForEachState, ptr %8, i32 0, i32 1
  store i32 0, ptr %22, align 8
  %23 = getelementptr i8, ptr %8, i64 12
  call void @llvm.memset.p0.i64(ptr align 4 %23, i8 0, i64 4, i1 false)
  br label %24

24:                                               ; preds = %74, %2
  %25 = getelementptr inbounds nuw %struct.ForEachState, ptr %8, i32 0, i32 0
  %26 = load ptr, ptr %25, align 8
  %27 = icmp ne ptr %26, null
  br i1 %27, label %28, label %45

28:                                               ; preds = %24
  %29 = getelementptr inbounds nuw %struct.ForEachState, ptr %8, i32 0, i32 1
  %30 = load i32, ptr %29, align 8
  %31 = getelementptr inbounds nuw %struct.ForEachState, ptr %8, i32 0, i32 0
  %32 = load ptr, ptr %31, align 8
  %33 = getelementptr inbounds nuw %struct.List, ptr %32, i32 0, i32 1
  %34 = load i32, ptr %33, align 4
  %35 = icmp slt i32 %30, %34
  br i1 %35, label %36, label %45

36:                                               ; preds = %28
  %37 = getelementptr inbounds nuw %struct.ForEachState, ptr %8, i32 0, i32 0
  %38 = load ptr, ptr %37, align 8
  %39 = getelementptr inbounds nuw %struct.List, ptr %38, i32 0, i32 3
  %40 = load ptr, ptr %39, align 8
  %41 = getelementptr inbounds nuw %struct.ForEachState, ptr %8, i32 0, i32 1
  %42 = load i32, ptr %41, align 8
  %43 = sext i32 %42 to i64
  %44 = getelementptr inbounds %union.ListCell, ptr %40, i64 %43
  store ptr %44, ptr %7, align 8
  br label %46

45:                                               ; preds = %28, %24
  store ptr null, ptr %7, align 8
  br label %46

46:                                               ; preds = %45, %36
  %47 = phi i32 [ 1, %36 ], [ 0, %45 ]
  %48 = icmp ne i32 %47, 0
  br i1 %48, label %50, label %49

49:                                               ; preds = %46
  call void @llvm.lifetime.end.p0(i64 16, ptr %8) #10
  br label %78

50:                                               ; preds = %46
  call void @llvm.lifetime.start.p0(i64 8, ptr %9) #10
  %51 = load ptr, ptr %7, align 8
  %52 = load ptr, ptr %51, align 8
  store ptr %52, ptr %9, align 8
  %53 = load ptr, ptr %9, align 8
  %54 = getelementptr inbounds nuw %struct.RelationData, ptr %53, i32 0, i32 13
  %55 = load ptr, ptr %54, align 8
  %56 = getelementptr inbounds nuw %struct.FormData_pg_class, ptr %55, i32 0, i32 20
  %57 = load i8, ptr %56, align 1, !range !6, !noundef !7
  %58 = trunc i8 %57 to i1
  br i1 %58, label %67, label %59

59:                                               ; preds = %50
  %60 = load ptr, ptr %9, align 8
  %61 = getelementptr inbounds nuw %struct.RelationData, ptr %60, i32 0, i32 13
  %62 = load ptr, ptr %61, align 8
  %63 = getelementptr inbounds nuw %struct.FormData_pg_class, ptr %62, i32 0, i32 16
  %64 = load i8, ptr %63, align 1
  %65 = sext i8 %64 to i32
  %66 = icmp eq i32 %65, 112
  br i1 %66, label %67, label %73

67:                                               ; preds = %59, %50
  %68 = load ptr, ptr %5, align 8
  %69 = load ptr, ptr %9, align 8
  %70 = getelementptr inbounds nuw %struct.RelationData, ptr %69, i32 0, i32 15
  %71 = load i32, ptr %70, align 8
  %72 = call ptr @lappend_oid(ptr noundef %68, i32 noundef %71)
  store ptr %72, ptr %5, align 8
  br label %73

73:                                               ; preds = %67, %59
  call void @llvm.lifetime.end.p0(i64 8, ptr %9) #10
  br label %74

74:                                               ; preds = %73
  %75 = getelementptr inbounds nuw %struct.ForEachState, ptr %8, i32 0, i32 1
  %76 = load i32, ptr %75, align 8
  %77 = add i32 %76, 1
  store i32 %77, ptr %75, align 8
  br label %24, !llvm.loop !44

78:                                               ; preds = %49
  %79 = load ptr, ptr %5, align 8
  %80 = icmp eq ptr %79, null
  br i1 %80, label %81, label %82

81:                                               ; preds = %78
  store i32 1, ptr %10, align 4
  br label %215

82:                                               ; preds = %78
  %83 = load ptr, ptr %5, align 8
  %84 = call ptr @heap_truncate_find_FKs(ptr noundef %83)
  store ptr %84, ptr %6, align 8
  %85 = load ptr, ptr %6, align 8
  %86 = icmp eq ptr %85, null
  br i1 %86, label %87, label %88

87:                                               ; preds = %82
  store i32 1, ptr %10, align 4
  br label %215

88:                                               ; preds = %82
  call void @llvm.lifetime.start.p0(i64 16, ptr %11) #10
  %89 = getelementptr inbounds nuw %struct.ForEachState, ptr %11, i32 0, i32 0
  %90 = load ptr, ptr %5, align 8
  store ptr %90, ptr %89, align 8
  %91 = getelementptr inbounds nuw %struct.ForEachState, ptr %11, i32 0, i32 1
  store i32 0, ptr %91, align 8
  %92 = getelementptr i8, ptr %11, i64 12
  call void @llvm.memset.p0.i64(ptr align 4 %92, i8 0, i64 4, i1 false)
  br label %93

93:                                               ; preds = %210, %88
  %94 = getelementptr inbounds nuw %struct.ForEachState, ptr %11, i32 0, i32 0
  %95 = load ptr, ptr %94, align 8
  %96 = icmp ne ptr %95, null
  br i1 %96, label %97, label %114

97:                                               ; preds = %93
  %98 = getelementptr inbounds nuw %struct.ForEachState, ptr %11, i32 0, i32 1
  %99 = load i32, ptr %98, align 8
  %100 = getelementptr inbounds nuw %struct.ForEachState, ptr %11, i32 0, i32 0
  %101 = load ptr, ptr %100, align 8
  %102 = getelementptr inbounds nuw %struct.List, ptr %101, i32 0, i32 1
  %103 = load i32, ptr %102, align 4
  %104 = icmp slt i32 %99, %103
  br i1 %104, label %105, label %114

105:                                              ; preds = %97
  %106 = getelementptr inbounds nuw %struct.ForEachState, ptr %11, i32 0, i32 0
  %107 = load ptr, ptr %106, align 8
  %108 = getelementptr inbounds nuw %struct.List, ptr %107, i32 0, i32 3
  %109 = load ptr, ptr %108, align 8
  %110 = getelementptr inbounds nuw %struct.ForEachState, ptr %11, i32 0, i32 1
  %111 = load i32, ptr %110, align 8
  %112 = sext i32 %111 to i64
  %113 = getelementptr inbounds %union.ListCell, ptr %109, i64 %112
  store ptr %113, ptr %7, align 8
  br label %115

114:                                              ; preds = %97, %93
  store ptr null, ptr %7, align 8
  br label %115

115:                                              ; preds = %114, %105
  %116 = phi i32 [ 1, %105 ], [ 0, %114 ]
  %117 = icmp ne i32 %116, 0
  br i1 %117, label %119, label %118

118:                                              ; preds = %115
  store i32 5, ptr %10, align 4
  call void @llvm.lifetime.end.p0(i64 16, ptr %11) #10
  br label %214

119:                                              ; preds = %115
  call void @llvm.lifetime.start.p0(i64 4, ptr %12) #10
  %120 = load ptr, ptr %7, align 8
  %121 = load i32, ptr %120, align 8
  store i32 %121, ptr %12, align 4
  call void @llvm.lifetime.start.p0(i64 8, ptr %13) #10
  %122 = load i32, ptr %12, align 4
  store i32 %122, ptr %14, align 8
  %123 = getelementptr i8, ptr %14, i64 4
  call void @llvm.memset.p0.i64(ptr align 4 %123, i8 0, i64 4, i1 false)
  %124 = getelementptr inbounds nuw %union.ListCell, ptr %14, i32 0, i32 0
  %125 = load ptr, ptr %124, align 8
  %126 = call ptr @list_make1_impl(i32 noundef 471, ptr %125)
  %127 = call ptr @heap_truncate_find_FKs(ptr noundef %126)
  store ptr %127, ptr %6, align 8
  call void @llvm.lifetime.start.p0(i64 16, ptr %15) #10
  %128 = getelementptr inbounds nuw %struct.ForEachState, ptr %15, i32 0, i32 0
  %129 = load ptr, ptr %6, align 8
  store ptr %129, ptr %128, align 8
  %130 = getelementptr inbounds nuw %struct.ForEachState, ptr %15, i32 0, i32 1
  store i32 0, ptr %130, align 8
  %131 = getelementptr i8, ptr %15, i64 12
  call void @llvm.memset.p0.i64(ptr align 4 %131, i8 0, i64 4, i1 false)
  br label %132

132:                                              ; preds = %205, %119
  %133 = getelementptr inbounds nuw %struct.ForEachState, ptr %15, i32 0, i32 0
  %134 = load ptr, ptr %133, align 8
  %135 = icmp ne ptr %134, null
  br i1 %135, label %136, label %153

136:                                              ; preds = %132
  %137 = getelementptr inbounds nuw %struct.ForEachState, ptr %15, i32 0, i32 1
  %138 = load i32, ptr %137, align 8
  %139 = getelementptr inbounds nuw %struct.ForEachState, ptr %15, i32 0, i32 0
  %140 = load ptr, ptr %139, align 8
  %141 = getelementptr inbounds nuw %struct.List, ptr %140, i32 0, i32 1
  %142 = load i32, ptr %141, align 4
  %143 = icmp slt i32 %138, %142
  br i1 %143, label %144, label %153

144:                                              ; preds = %136
  %145 = getelementptr inbounds nuw %struct.ForEachState, ptr %15, i32 0, i32 0
  %146 = load ptr, ptr %145, align 8
  %147 = getelementptr inbounds nuw %struct.List, ptr %146, i32 0, i32 3
  %148 = load ptr, ptr %147, align 8
  %149 = getelementptr inbounds nuw %struct.ForEachState, ptr %15, i32 0, i32 1
  %150 = load i32, ptr %149, align 8
  %151 = sext i32 %150 to i64
  %152 = getelementptr inbounds %union.ListCell, ptr %148, i64 %151
  store ptr %152, ptr %13, align 8
  br label %154

153:                                              ; preds = %136, %132
  store ptr null, ptr %13, align 8
  br label %154

154:                                              ; preds = %153, %144
  %155 = phi i32 [ 1, %144 ], [ 0, %153 ]
  %156 = icmp ne i32 %155, 0
  br i1 %156, label %158, label %157

157:                                              ; preds = %154
  store i32 8, ptr %10, align 4
  call void @llvm.lifetime.end.p0(i64 16, ptr %15) #10
  br label %209

158:                                              ; preds = %154
  call void @llvm.lifetime.start.p0(i64 4, ptr %16) #10
  %159 = load ptr, ptr %13, align 8
  %160 = load i32, ptr %159, align 8
  store i32 %160, ptr %16, align 4
  %161 = load ptr, ptr %5, align 8
  %162 = load i32, ptr %16, align 4
  %163 = call zeroext i1 @list_member_oid(ptr noundef %161, i32 noundef %162)
  br i1 %163, label %204, label %164

164:                                              ; preds = %158
  call void @llvm.lifetime.start.p0(i64 8, ptr %17) #10
  %165 = load i32, ptr %12, align 4
  %166 = call ptr @get_rel_name(i32 noundef %165)
  store ptr %166, ptr %17, align 8
  call void @llvm.lifetime.start.p0(i64 8, ptr %18) #10
  %167 = load i32, ptr %16, align 4
  %168 = call ptr @get_rel_name(i32 noundef %167)
  store ptr %168, ptr %18, align 8
  %169 = load i8, ptr %4, align 1, !range !6, !noundef !7
  %170 = trunc i8 %169 to i1
  br i1 %170, label %171, label %186

171:                                              ; preds = %164
  br label %172

172:                                              ; preds = %171
  br i1 true, label %173, label %175

173:                                              ; preds = %172
  %174 = call zeroext i1 @errstart_cold(i32 noundef 21, ptr noundef null) #9
  br i1 %174, label %177, label %183

175:                                              ; preds = %172
  %176 = call zeroext i1 @errstart(i32 noundef 21, ptr noundef null)
  br i1 %176, label %177, label %183

177:                                              ; preds = %175, %173
  %178 = call i32 @errcode(i32 noundef 1088)
  %179 = call i32 (ptr, ...) @errmsg(ptr noundef @.str.41)
  %180 = load ptr, ptr %18, align 8
  %181 = load ptr, ptr %17, align 8
  %182 = call i32 (ptr, ...) @errdetail(ptr noundef @.str.42, ptr noundef %180, ptr noundef %181)
  call void @errfinish(ptr noundef @.str.1, i32 noundef 3597, ptr noundef @__func__.heap_truncate_check_FKs)
  br label %183

183:                                              ; preds = %177, %175, %173
  unreachable

184:                                              ; No predecessors!
  br label %185

185:                                              ; preds = %184
  br label %203

186:                                              ; preds = %164
  br label %187

187:                                              ; preds = %186
  br i1 true, label %188, label %190

188:                                              ; preds = %187
  %189 = call zeroext i1 @errstart_cold(i32 noundef 21, ptr noundef null) #9
  br i1 %189, label %192, label %200

190:                                              ; preds = %187
  %191 = call zeroext i1 @errstart(i32 noundef 21, ptr noundef null)
  br i1 %191, label %192, label %200

192:                                              ; preds = %190, %188
  %193 = call i32 @errcode(i32 noundef 1088)
  %194 = call i32 (ptr, ...) @errmsg(ptr noundef @.str.43)
  %195 = load ptr, ptr %18, align 8
  %196 = load ptr, ptr %17, align 8
  %197 = call i32 (ptr, ...) @errdetail(ptr noundef @.str.44, ptr noundef %195, ptr noundef %196)
  %198 = load ptr, ptr %18, align 8
  %199 = call i32 (ptr, ...) @errhint(ptr noundef @.str.45, ptr noundef %198)
  call void @errfinish(ptr noundef @.str.1, i32 noundef 3606, ptr noundef @__func__.heap_truncate_check_FKs)
  br label %200

200:                                              ; preds = %192, %190, %188
  unreachable

201:                                              ; No predecessors!
  br label %202

202:                                              ; preds = %201
  br label %203

203:                                              ; preds = %202, %185
  call void @llvm.lifetime.end.p0(i64 8, ptr %18) #10
  call void @llvm.lifetime.end.p0(i64 8, ptr %17) #10
  br label %204

204:                                              ; preds = %203, %158
  call void @llvm.lifetime.end.p0(i64 4, ptr %16) #10
  br label %205

205:                                              ; preds = %204
  %206 = getelementptr inbounds nuw %struct.ForEachState, ptr %15, i32 0, i32 1
  %207 = load i32, ptr %206, align 8
  %208 = add i32 %207, 1
  store i32 %208, ptr %206, align 8
  br label %132, !llvm.loop !45

209:                                              ; preds = %157
  call void @llvm.lifetime.end.p0(i64 8, ptr %13) #10
  call void @llvm.lifetime.end.p0(i64 4, ptr %12) #10
  br label %210

210:                                              ; preds = %209
  %211 = getelementptr inbounds nuw %struct.ForEachState, ptr %11, i32 0, i32 1
  %212 = load i32, ptr %211, align 8
  %213 = add i32 %212, 1
  store i32 %213, ptr %211, align 8
  br label %93, !llvm.loop !46

214:                                              ; preds = %118
  store i32 0, ptr %10, align 4
  br label %215

215:                                              ; preds = %214, %87, %81
  call void @llvm.lifetime.end.p0(i64 8, ptr %7) #10
  call void @llvm.lifetime.end.p0(i64 8, ptr %6) #10
  call void @llvm.lifetime.end.p0(i64 8, ptr %5) #10
  %216 = load i32, ptr %10, align 4
  switch i32 %216, label %218 [
    i32 0, label %217
    i32 1, label %217
  ]

217:                                              ; preds = %215, %215
  ret void

218:                                              ; preds = %215
  unreachable
}