; Function Attrs: nounwind uwtable
define dso_local void @heap_truncate_check_FKs(ptr noundef readonly captures(address_is_null) %0, i1 noundef zeroext %1) local_unnamed_addr #0 {
  %3 = getelementptr inbounds nuw i8, ptr %0, i64 4
  %.not = icmp eq ptr %0, null
  br i1 %.not, label %.loopexit, label %.lr.ph

.lr.ph:                                           ; preds = %2
  %4 = getelementptr inbounds nuw i8, ptr %0, i64 16
  %5 = load i32, ptr %3, align 4
  %6 = icmp sgt i32 %5, 0
  br i1 %6, label %.lr.ph69, label %.loopexit

._crit_edge:                                      ; preds = %25
  %7 = icmp eq ptr %.1, null
  br i1 %7, label %.loopexit, label %29

.lr.ph69:                                         ; preds = %.lr.ph, %25
  %8 = phi i32 [ %26, %25 ], [ %5, %.lr.ph ]
  %indvars.iv = phi i64 [ %indvars.iv.next, %25 ], [ 0, %.lr.ph ]
  %.06367 = phi ptr [ %.1, %25 ], [ null, %.lr.ph ]
  %9 = load ptr, ptr %4, align 8
  %10 = getelementptr inbounds nuw %union.ListCell, ptr %9, i64 %indvars.iv
  %11 = load ptr, ptr %10, align 8
  %12 = getelementptr inbounds nuw i8, ptr %11, i64 56
  %13 = load ptr, ptr %12, align 8
  %14 = getelementptr inbounds nuw i8, ptr %13, i64 121
  %15 = load i8, ptr %14, align 1, !range !10, !noundef !11
  %16 = trunc nuw i8 %15 to i1
  br i1 %16, label %21, label %17

17:                                               ; preds = %.lr.ph69
  %18 = getelementptr inbounds nuw i8, ptr %13, i64 115
  %19 = load i8, ptr %18, align 1
  %20 = icmp eq i8 %19, 112
  br i1 %20, label %21, label %25

21:                                               ; preds = %17, %.lr.ph69
  %22 = getelementptr inbounds nuw i8, ptr %11, i64 72
  %23 = load i32, ptr %22, align 8
  %24 = tail call ptr @lappend_oid(ptr noundef %.06367, i32 noundef %23) #11
  %.pre = load i32, ptr %3, align 4
  br label %25

25:                                               ; preds = %21, %17
  %26 = phi i32 [ %.pre, %21 ], [ %8, %17 ]
  %.1 = phi ptr [ %24, %21 ], [ %.06367, %17 ]
  %indvars.iv.next = add nuw nsw i64 %indvars.iv, 1
  %27 = sext i32 %26 to i64
  %28 = icmp slt i64 %indvars.iv.next, %27
  br i1 %28, label %.lr.ph69, label %._crit_edge

29:                                               ; preds = %._crit_edge
  %30 = tail call ptr @heap_truncate_find_FKs(ptr noundef nonnull %.1)
  %31 = icmp eq ptr %30, null
  br i1 %31, label %.loopexit, label %.preheader

.preheader:                                       ; preds = %29
  %32 = getelementptr inbounds nuw i8, ptr %.1, i64 4
  %33 = load i32, ptr %32, align 4
  %.not4980 = icmp sgt i32 %33, 0
  br i1 %.not4980, label %.lr.ph82, label %.loopexit

.lr.ph82:                                         ; preds = %.preheader
  %34 = getelementptr inbounds nuw i8, ptr %.1, i64 16
  br label %35

35:                                               ; preds = %.lr.ph82, %._crit_edge75.split.us
  %indvars.iv90 = phi i64 [ 0, %.lr.ph82 ], [ %indvars.iv.next91, %._crit_edge75.split.us ]
  %36 = load ptr, ptr %34, align 8
  %37 = getelementptr inbounds nuw %union.ListCell, ptr %36, i64 %indvars.iv90
  %38 = load i32, ptr %37, align 8
  %.sroa.010.0.insert.ext = zext i32 %38 to i64
  %39 = inttoptr i64 %.sroa.010.0.insert.ext to ptr
  %40 = tail call ptr @list_make1_impl(i32 noundef 471, ptr %39) #11
  %41 = tail call ptr @heap_truncate_find_FKs(ptr noundef %40)
  %.not50 = icmp eq ptr %41, null
  br i1 %.not50, label %._crit_edge75.split.us, label %.lr.ph73

.lr.ph73:                                         ; preds = %35
  %42 = getelementptr inbounds nuw i8, ptr %41, i64 4
  %43 = getelementptr inbounds nuw i8, ptr %41, i64 16
  %44 = load i32, ptr %42, align 4
  %45 = icmp sgt i32 %44, 0
  br i1 %45, label %.lr.ph79, label %._crit_edge75.split.us

46:                                               ; preds = %.lr.ph79
  %indvars.iv.next88 = add nuw nsw i64 %indvars.iv87, 1
  %47 = load i32, ptr %42, align 4
  %48 = sext i32 %47 to i64
  %49 = icmp slt i64 %indvars.iv.next88, %48
  br i1 %49, label %.lr.ph79, label %._crit_edge75.split.us

._crit_edge75.split.us:                           ; preds = %46, %.lr.ph73, %35
  %indvars.iv.next91 = add nuw nsw i64 %indvars.iv90, 1
  %50 = load i32, ptr %32, align 4
  %51 = sext i32 %50 to i64
  %.not49 = icmp slt i64 %indvars.iv.next91, %51
  br i1 %.not49, label %35, label %.loopexit, !llvm.loop !33

.lr.ph79:                                         ; preds = %.lr.ph73, %46
  %indvars.iv87 = phi i64 [ %indvars.iv.next88, %46 ], [ 0, %.lr.ph73 ]
  %52 = load ptr, ptr %43, align 8
  %53 = getelementptr inbounds nuw %union.ListCell, ptr %52, i64 %indvars.iv87
  %54 = load i32, ptr %53, align 8
  %55 = tail call zeroext i1 @list_member_oid(ptr noundef nonnull %.1, i32 noundef %54) #11
  br i1 %55, label %46, label %.split

.split:                                           ; preds = %.lr.ph79
  %56 = tail call ptr @get_rel_name(i32 noundef %38) #11
  %57 = tail call ptr @get_rel_name(i32 noundef %54) #11
  %58 = tail call zeroext i1 @errstart_cold(i32 noundef 21, ptr noundef null) #10
  tail call void @llvm.assume(i1 %58)
  %59 = tail call i32 @errcode(i32 noundef 1088) #11
  br i1 %1, label %60, label %63

60:                                               ; preds = %.split
  %61 = tail call i32 (ptr, ...) @errmsg(ptr noundef nonnull @.str.41) #11
  %62 = tail call i32 (ptr, ...) @errdetail(ptr noundef nonnull @.str.42, ptr noundef %57, ptr noundef %56) #11
  tail call void @errfinish(ptr noundef nonnull @.str.1, i32 noundef 3597, ptr noundef nonnull @__func__.heap_truncate_check_FKs) #11
  unreachable

63:                                               ; preds = %.split
  %64 = tail call i32 (ptr, ...) @errmsg(ptr noundef nonnull @.str.43) #11
  %65 = tail call i32 (ptr, ...) @errdetail(ptr noundef nonnull @.str.44, ptr noundef %57, ptr noundef %56) #11
  %66 = tail call i32 (ptr, ...) @errhint(ptr noundef nonnull @.str.45, ptr noundef %57) #11
  tail call void @errfinish(ptr noundef nonnull @.str.1, i32 noundef 3606, ptr noundef nonnull @__func__.heap_truncate_check_FKs) #11
  unreachable

.loopexit:                                        ; preds = %._crit_edge75.split.us, %.lr.ph, %2, %.preheader, %29, %._crit_edge
  ret void
}